target datalayout = "e-m:e-p270:32:32-p271:32:32-p272:64:64-i64:64-i128:128-f80:128-n8:16:32:64-S128"
target triple = "x86_64-pc-linux-gnu"

%struct.lean_object = type { i32, i32 }

; Function Attrs: alwaysinline nounwind uwtable
define internal void @lean_dec_ref(ptr noundef %0) #1 {
  %2 = alloca ptr, align 8
  store ptr %0, ptr %2, align 8, !tbaa !8
  %3 = load ptr, ptr %2, align 8, !tbaa !8
  %4 = getelementptr inbounds nuw %struct.lean_object, ptr %3, i32 0, i32 0
  %5 = load i32, ptr %4, align 4, !tbaa !19
  %6 = icmp sgt i32 %5, 1
  %7 = zext i1 %6 to i32
  %8 = sext i32 %7 to i64
  %9 = call i64 @llvm.expect.i64(i64 %8, i64 1)
  %10 = icmp ne i64 %9, 0
  br i1 %10, label %11, label %16

11:                                               ; preds = %1
  %12 = load ptr, ptr %2, align 8, !tbaa !8
  %13 = getelementptr inbounds nuw %struct.lean_object, ptr %12, i32 0, i32 0
  %14 = load i32, ptr %13, align 4, !tbaa !19
  %15 = add i32 %14, -1
  store i32 %15, ptr %13, align 4, !tbaa !19
  br label %24

16:                                               ; preds = %1
  %17 = load ptr, ptr %2, align 8, !tbaa !8
  %18 = getelementptr inbounds nuw %struct.lean_object, ptr %17, i32 0, i32 0
  %19 = load i32, ptr %18, align 4, !tbaa !19
  %20 = icmp ne i32 %19, 0
  br i1 %20, label %21, label %23

21:                                               ; preds = %16
  %22 = load ptr, ptr %2, align 8, !tbaa !8
  call void @lean_dec_ref_cold(ptr noundef %22)
  br label %23

23:                                               ; preds = %21, %16
  br label %24

24:                                               ; preds = %23, %11
  ret void
}

; Function Attrs: alwaysinline nounwind uwtable
define internal zeroext i1 @lean_is_scalar(ptr noundef %0) #1 {
  %2 = alloca ptr, align 8
  store ptr %0, ptr %2, align 8, !tbaa !8
  %3 = load ptr, ptr %2, align 8, !tbaa !8
  %4 = ptrtoint ptr %3 to i64
  %5 = and i64 %4, 1
  %6 = icmp eq i64 %5, 1
  ret i1 %6
}

; Function Attrs: inlinehint nounwind uwtable
define internal zeroext i8 @lean_uint32_dec_eq(i32 noundef %0, i32 noundef %1) #0 {
  %3 = alloca i32, align 4
  %4 = alloca i32, align 4
  store i32 %0, ptr %3, align 4, !tbaa !4
  store i32 %1, ptr %4, align 4, !tbaa !4
  %5 = load i32, ptr %3, align 4, !tbaa !4
  %6 = load i32, ptr %4, align 4, !tbaa !4
  %7 = icmp eq i32 %5, %6
  %8 = zext i1 %7 to i32
  %9 = trunc i32 %8 to i8
  ret i8 %9
}

; Function Attrs: alwaysinline nounwind uwtable
define internal void @lean_dec(ptr noundef %0) #1 {
  %2 = alloca ptr, align 8
  store ptr %0, ptr %2, align 8, !tbaa !8
  %3 = load ptr, ptr %2, align 8, !tbaa !8
  %4 = call zeroext i1 @lean_is_scalar(ptr noundef %3)
  br i1 %4, label %7, label %5

5:                                                ; preds = %1
  %6 = load ptr, ptr %2, align 8, !tbaa !8
  call void @lean_dec_ref(ptr noundef %6)
  br label %7

7:                                                ; preds = %5, %1
  ret void
}

; Function Attrs: inlinehint nounwind uwtable
define internal ptr @lean_box(i64 noundef %0) #0 {
  %2 = alloca i64, align 8
  store i64 %0, ptr %2, align 8, !tbaa !12
  %3 = load i64, ptr %2, align 8, !tbaa !12
  %4 = shl i64 %3, 1
  %5 = or i64 %4, 1
  %6 = inttoptr i64 %5 to ptr
  ret ptr %6
}

; Function Attrs: inlinehint nounwind uwtable
define internal zeroext i8 @lean_uint32_dec_le(i32 noundef %0, i32 noundef %1) #0 {
  %3 = alloca i32, align 4
  %4 = alloca i32, align 4
  store i32 %0, ptr %3, align 4, !tbaa !4
  store i32 %1, ptr %4, align 4, !tbaa !4
  %5 = load i32, ptr %3, align 4, !tbaa !4
  %6 = load i32, ptr %4, align 4, !tbaa !4
  %7 = icmp ule i32 %5, %6
  %8 = zext i1 %7 to i32
  %9 = trunc i32 %8 to i8
  ret i8 %9
}

; Function Attrs: nounwind uwtable
define zeroext i8 @l_Lean_ParseImports_isIdRestFast(i32 noundef %0) #2 {
  %2 = alloca i8, align 1
  %3 = alloca i32, align 4
  %4 = alloca ptr, align 8
  %5 = alloca ptr, align 8
  %6 = alloca i32, align 4
  %7 = alloca i8, align 1
  %8 = alloca i32, align 4
  %9 = alloca i8, align 1
  %10 = alloca ptr, align 8
  %11 = alloca i32, align 4
  %12 = alloca i32, align 4
  %13 = alloca i8, align 1
  %14 = alloca ptr, align 8
  %15 = alloca i8, align 1
  %16 = alloca i32, align 4
  %17 = alloca i8, align 1
  %18 = alloca i32, align 4
  %19 = alloca i8, align 1
  %20 = alloca ptr, align 8
  %21 = alloca i32, align 4
  %22 = alloca i8, align 1
  %23 = alloca ptr, align 8
  %24 = alloca i8, align 1
  %25 = alloca i8, align 1
  %26 = alloca i32, align 4
  %27 = alloca i8, align 1
  %28 = alloca i32, align 4
  %29 = alloca i8, align 1
  %30 = alloca i32, align 4
  %31 = alloca i8, align 1
  %32 = alloca i32, align 4
  %33 = alloca i8, align 1
  %34 = alloca i32, align 4
  %35 = alloca i8, align 1
  %36 = alloca i32, align 4
  %37 = alloca i8, align 1
  %38 = alloca i32, align 4
  %39 = alloca i8, align 1
  %40 = alloca i8, align 1
  %41 = alloca i8, align 1
  %42 = alloca i8, align 1
  %43 = alloca i8, align 1
  %44 = alloca i8, align 1
  %45 = alloca i8, align 1
  %46 = alloca i8, align 1
  %47 = alloca i8, align 1
  %48 = alloca i8, align 1
  %49 = alloca i8, align 1
  %50 = alloca i32, align 4
  %51 = alloca i8, align 1
  %52 = alloca ptr, align 8
  %53 = alloca i32, align 4
  %54 = alloca i8, align 1
  %55 = alloca ptr, align 8
  %56 = alloca i8, align 1
  store i32 %0, ptr %3, align 4, !tbaa !4
  br label %57

57:                                               ; preds = %1
  call void @llvm.lifetime.start.p0(i64 8, ptr %4) #7
  call void @llvm.lifetime.start.p0(i64 8, ptr %5) #7
  call void @llvm.lifetime.start.p0(i64 4, ptr %6) #7
  call void @llvm.lifetime.start.p0(i64 1, ptr %7) #7
  store i32 65, ptr %6, align 4, !tbaa !4
  %58 = load i32, ptr %6, align 4, !tbaa !4
  %59 = load i32, ptr %3, align 4, !tbaa !4
  %60 = call zeroext i8 @lean_uint32_dec_le(i32 noundef %58, i32 noundef %59)
  store i8 %60, ptr %7, align 1, !tbaa !14
  %61 = load i8, ptr %7, align 1, !tbaa !14
  %62 = zext i8 %61 to i32
  %63 = icmp eq i32 %62, 0
  br i1 %63, label %64, label %89

64:                                               ; preds = %57
  call void @llvm.lifetime.start.p0(i64 4, ptr %8) #7
  call void @llvm.lifetime.start.p0(i64 1, ptr %9) #7
  store i32 97, ptr %8, align 4, !tbaa !4
  %65 = load i32, ptr %8, align 4, !tbaa !4
  %66 = load i32, ptr %3, align 4, !tbaa !4
  %67 = call zeroext i8 @lean_uint32_dec_le(i32 noundef %65, i32 noundef %66)
  store i8 %67, ptr %9, align 1, !tbaa !14
  %68 = load i8, ptr %9, align 1, !tbaa !14
  %69 = zext i8 %68 to i32
  %70 = icmp eq i32 %69, 0
  br i1 %70, label %71, label %74

71:                                               ; preds = %64
  call void @llvm.lifetime.start.p0(i64 8, ptr %10) #7
  %72 = call ptr @lean_box(i64 noundef 0)
  store ptr %72, ptr %10, align 8, !tbaa !8
  %73 = load ptr, ptr %10, align 8, !tbaa !8
  store ptr %73, ptr %5, align 8, !tbaa !8
  store i32 3, ptr %11, align 4
  call void @llvm.lifetime.end.p0(i64 8, ptr %10) #7
  br label %87

74:                                               ; preds = %64
  call void @llvm.lifetime.start.p0(i64 4, ptr %12) #7
  call void @llvm.lifetime.start.p0(i64 1, ptr %13) #7
  store i32 122, ptr %12, align 4, !tbaa !4
  %75 = load i32, ptr %3, align 4, !tbaa !4
  %76 = load i32, ptr %12, align 4, !tbaa !4
  %77 = call zeroext i8 @lean_uint32_dec_le(i32 noundef %75, i32 noundef %76)
  store i8 %77, ptr %13, align 1, !tbaa !14
  %78 = load i8, ptr %13, align 1, !tbaa !14
  %79 = zext i8 %78 to i32
  %80 = icmp eq i32 %79, 0
  br i1 %80, label %81, label %84

81:                                               ; preds = %74
  call void @llvm.lifetime.start.p0(i64 8, ptr %14) #7
  %82 = call ptr @lean_box(i64 noundef 0)
  store ptr %82, ptr %14, align 8, !tbaa !8
  %83 = load ptr, ptr %14, align 8, !tbaa !8
  store ptr %83, ptr %5, align 8, !tbaa !8
  store i32 3, ptr %11, align 4
  call void @llvm.lifetime.end.p0(i64 8, ptr %14) #7
  br label %86

84:                                               ; preds = %74
  call void @llvm.lifetime.start.p0(i64 1, ptr %15) #7
  store i8 1, ptr %15, align 1, !tbaa !14
  %85 = load i8, ptr %15, align 1, !tbaa !14
  store i8 %85, ptr %2, align 1
  store i32 1, ptr %11, align 4
  call void @llvm.lifetime.end.p0(i64 1, ptr %15) #7
  br label %86

86:                                               ; preds = %84, %81
  call void @llvm.lifetime.end.p0(i64 1, ptr %13) #7
  call void @llvm.lifetime.end.p0(i64 4, ptr %12) #7
  br label %87

87:                                               ; preds = %86, %71
  call void @llvm.lifetime.end.p0(i64 1, ptr %9) #7
  call void @llvm.lifetime.end.p0(i64 4, ptr %8) #7
  %88 = load i32, ptr %11, align 4
  switch i32 %88, label %234 [
    i32 3, label %208
  ]

89:                                               ; preds = %57
  call void @llvm.lifetime.start.p0(i64 4, ptr %16) #7
  call void @llvm.lifetime.start.p0(i64 1, ptr %17) #7
  store i32 90, ptr %16, align 4, !tbaa !4
  %90 = load i32, ptr %3, align 4, !tbaa !4
  %91 = load i32, ptr %16, align 4, !tbaa !4
  %92 = call zeroext i8 @lean_uint32_dec_le(i32 noundef %90, i32 noundef %91)
  store i8 %92, ptr %17, align 1, !tbaa !14
  %93 = load i8, ptr %17, align 1, !tbaa !14
  %94 = zext i8 %93 to i32
  %95 = icmp eq i32 %94, 0
  br i1 %95, label %96, label %120

96:                                               ; preds = %89
  call void @llvm.lifetime.start.p0(i64 4, ptr %18) #7
  call void @llvm.lifetime.start.p0(i64 1, ptr %19) #7
  store i32 97, ptr %18, align 4, !tbaa !4
  %97 = load i32, ptr %18, align 4, !tbaa !4
  %98 = load i32, ptr %3, align 4, !tbaa !4
  %99 = call zeroext i8 @lean_uint32_dec_le(i32 noundef %97, i32 noundef %98)
  store i8 %99, ptr %19, align 1, !tbaa !14
  %100 = load i8, ptr %19, align 1, !tbaa !14
  %101 = zext i8 %100 to i32
  %102 = icmp eq i32 %101, 0
  br i1 %102, label %103, label %106

103:                                              ; preds = %96
  call void @llvm.lifetime.start.p0(i64 8, ptr %20) #7
  %104 = call ptr @lean_box(i64 noundef 0)
  store ptr %104, ptr %20, align 8, !tbaa !8
  %105 = load ptr, ptr %20, align 8, !tbaa !8
  store ptr %105, ptr %5, align 8, !tbaa !8
  store i32 3, ptr %11, align 4
  call void @llvm.lifetime.end.p0(i64 8, ptr %20) #7
  br label %119

106:                                              ; preds = %96
  call void @llvm.lifetime.start.p0(i64 4, ptr %21) #7
  call void @llvm.lifetime.start.p0(i64 1, ptr %22) #7
  store i32 122, ptr %21, align 4, !tbaa !4
  %107 = load i32, ptr %3, align 4, !tbaa !4
  %108 = load i32, ptr %21, align 4, !tbaa !4
  %109 = call zeroext i8 @lean_uint32_dec_le(i32 noundef %107, i32 noundef %108)
  store i8 %109, ptr %22, align 1, !tbaa !14
  %110 = load i8, ptr %22, align 1, !tbaa !14
  %111 = zext i8 %110 to i32
  %112 = icmp eq i32 %111, 0
  br i1 %112, label %113, label %116

113:                                              ; preds = %106
  call void @llvm.lifetime.start.p0(i64 8, ptr %23) #7
  %114 = call ptr @lean_box(i64 noundef 0)
  store ptr %114, ptr %23, align 8, !tbaa !8
  %115 = load ptr, ptr %23, align 8, !tbaa !8
  store ptr %115, ptr %5, align 8, !tbaa !8
  store i32 3, ptr %11, align 4
  call void @llvm.lifetime.end.p0(i64 8, ptr %23) #7
  br label %118

116:                                              ; preds = %106
  call void @llvm.lifetime.start.p0(i64 1, ptr %24) #7
  store i8 1, ptr %24, align 1, !tbaa !14
  %117 = load i8, ptr %24, align 1, !tbaa !14
  store i8 %117, ptr %2, align 1
  store i32 1, ptr %11, align 4
  call void @llvm.lifetime.end.p0(i64 1, ptr %24) #7
  br label %118

118:                                              ; preds = %116, %113
  call void @llvm.lifetime.end.p0(i64 1, ptr %22) #7
  call void @llvm.lifetime.end.p0(i64 4, ptr %21) #7
  br label %119

119:                                              ; preds = %118, %103
  call void @llvm.lifetime.end.p0(i64 1, ptr %19) #7
  call void @llvm.lifetime.end.p0(i64 4, ptr %18) #7
  br label %122

120:                                              ; preds = %89
  call void @llvm.lifetime.start.p0(i64 1, ptr %25) #7
  store i8 1, ptr %25, align 1, !tbaa !14
  %121 = load i8, ptr %25, align 1, !tbaa !14
  store i8 %121, ptr %2, align 1
  store i32 1, ptr %11, align 4
  call void @llvm.lifetime.end.p0(i64 1, ptr %25) #7
  br label %122

122:                                              ; preds = %120, %119
  call void @llvm.lifetime.end.p0(i64 1, ptr %17) #7
  call void @llvm.lifetime.end.p0(i64 4, ptr %16) #7
  %123 = load i32, ptr %11, align 4
  switch i32 %123, label %234 [
    i32 3, label %208
  ]

124:                                              ; preds = %232
  call void @llvm.lifetime.start.p0(i64 4, ptr %26) #7
  call void @llvm.lifetime.start.p0(i64 1, ptr %27) #7
  %125 = load ptr, ptr %4, align 8, !tbaa !8
  call void @lean_dec(ptr noundef %125)
  store i32 46, ptr %26, align 4, !tbaa !4
  %126 = load i32, ptr %3, align 4, !tbaa !4
  %127 = load i32, ptr %26, align 4, !tbaa !4
  %128 = call zeroext i8 @lean_uint32_dec_eq(i32 noundef %126, i32 noundef %127)
  store i8 %128, ptr %27, align 1, !tbaa !14
  %129 = load i8, ptr %27, align 1, !tbaa !14
  %130 = zext i8 %129 to i32
  %131 = icmp eq i32 %130, 0
  br i1 %131, label %132, label %205

132:                                              ; preds = %124
  call void @llvm.lifetime.start.p0(i64 4, ptr %28) #7
  call void @llvm.lifetime.start.p0(i64 1, ptr %29) #7
  store i32 10, ptr %28, align 4, !tbaa !4
  %133 = load i32, ptr %3, align 4, !tbaa !4
  %134 = load i32, ptr %28, align 4, !tbaa !4
  %135 = call zeroext i8 @lean_uint32_dec_eq(i32 noundef %133, i32 noundef %134)
  store i8 %135, ptr %29, align 1, !tbaa !14
  %136 = load i8, ptr %29, align 1, !tbaa !14
  %137 = zext i8 %136 to i32
  %138 = icmp eq i32 %137, 0
  br i1 %138, label %139, label %202

139:                                              ; preds = %132
  call void @llvm.lifetime.start.p0(i64 4, ptr %30) #7
  call void @llvm.lifetime.start.p0(i64 1, ptr %31) #7
  store i32 32, ptr %30, align 4, !tbaa !4
  %140 = load i32, ptr %3, align 4, !tbaa !4
  %141 = load i32, ptr %30, align 4, !tbaa !4
  %142 = call zeroext i8 @lean_uint32_dec_eq(i32 noundef %140, i32 noundef %141)
  store i8 %142, ptr %31, align 1, !tbaa !14
  %143 = load i8, ptr %31, align 1, !tbaa !14
  %144 = zext i8 %143 to i32
  %145 = icmp eq i32 %144, 0
  br i1 %145, label %146, label %199

146:                                              ; preds = %139
  call void @llvm.lifetime.start.p0(i64 4, ptr %32) #7
  call void @llvm.lifetime.start.p0(i64 1, ptr %33) #7
  store i32 95, ptr %32, align 4, !tbaa !4
  %147 = load i32, ptr %3, align 4, !tbaa !4
  %148 = load i32, ptr %32, align 4, !tbaa !4
  %149 = call zeroext i8 @lean_uint32_dec_eq(i32 noundef %147, i32 noundef %148)
  store i8 %149, ptr %33, align 1, !tbaa !14
  %150 = load i8, ptr %33, align 1, !tbaa !14
  %151 = zext i8 %150 to i32
  %152 = icmp eq i32 %151, 0
  br i1 %152, label %153, label %196

153:                                              ; preds = %146
  call void @llvm.lifetime.start.p0(i64 4, ptr %34) #7
  call void @llvm.lifetime.start.p0(i64 1, ptr %35) #7
  store i32 39, ptr %34, align 4, !tbaa !4
  %154 = load i32, ptr %3, align 4, !tbaa !4
  %155 = load i32, ptr %34, align 4, !tbaa !4
  %156 = call zeroext i8 @lean_uint32_dec_eq(i32 noundef %154, i32 noundef %155)
  store i8 %156, ptr %35, align 1, !tbaa !14
  %157 = load i8, ptr %35, align 1, !tbaa !14
  %158 = zext i8 %157 to i32
  %159 = icmp eq i32 %158, 0
  br i1 %159, label %160, label %193

160:                                              ; preds = %153
  call void @llvm.lifetime.start.p0(i64 4, ptr %36) #7
  call void @llvm.lifetime.start.p0(i64 1, ptr %37) #7
  store i32 33, ptr %36, align 4, !tbaa !4
  %161 = load i32, ptr %3, align 4, !tbaa !4
  %162 = load i32, ptr %36, align 4, !tbaa !4
  %163 = call zeroext i8 @lean_uint32_dec_eq(i32 noundef %161, i32 noundef %162)
  store i8 %163, ptr %37, align 1, !tbaa !14
  %164 = load i8, ptr %37, align 1, !tbaa !14
  %165 = zext i8 %164 to i32
  %166 = icmp eq i32 %165, 0
  br i1 %166, label %167, label %190

167:                                              ; preds = %160
  call void @llvm.lifetime.start.p0(i64 4, ptr %38) #7
  call void @llvm.lifetime.start.p0(i64 1, ptr %39) #7
  store i32 63, ptr %38, align 4, !tbaa !4
  %168 = load i32, ptr %3, align 4, !tbaa !4
  %169 = load i32, ptr %38, align 4, !tbaa !4
  %170 = call zeroext i8 @lean_uint32_dec_eq(i32 noundef %168, i32 noundef %169)
  store i8 %170, ptr %39, align 1, !tbaa !14
  %171 = load i8, ptr %39, align 1, !tbaa !14
  %172 = zext i8 %171 to i32
  %173 = icmp eq i32 %172, 0
  br i1 %173, label %174, label %187

174:                                              ; preds = %167
  call void @llvm.lifetime.start.p0(i64 1, ptr %40) #7
  %175 = load i32, ptr %3, align 4, !tbaa !4
  %176 = call zeroext i8 @l_Lean_isLetterLike(i32 noundef %175)
  store i8 %176, ptr %40, align 1, !tbaa !14
  %177 = load i8, ptr %40, align 1, !tbaa !14
  %178 = zext i8 %177 to i32
  %179 = icmp eq i32 %178, 0
  br i1 %179, label %180, label %184

180:                                              ; preds = %174
  call void @llvm.lifetime.start.p0(i64 1, ptr %41) #7
  %181 = load i32, ptr %3, align 4, !tbaa !4
  %182 = call zeroext i8 @l_Lean_isSubScriptAlnum(i32 noundef %181)
  store i8 %182, ptr %41, align 1, !tbaa !14
  %183 = load i8, ptr %41, align 1, !tbaa !14
  store i8 %183, ptr %2, align 1
  store i32 1, ptr %11, align 4
  call void @llvm.lifetime.end.p0(i64 1, ptr %41) #7
  br label %186

184:                                              ; preds = %174
  call void @llvm.lifetime.start.p0(i64 1, ptr %42) #7
  store i8 1, ptr %42, align 1, !tbaa !14
  %185 = load i8, ptr %42, align 1, !tbaa !14
  store i8 %185, ptr %2, align 1
  store i32 1, ptr %11, align 4
  call void @llvm.lifetime.end.p0(i64 1, ptr %42) #7
  br label %186

186:                                              ; preds = %184, %180
  call void @llvm.lifetime.end.p0(i64 1, ptr %40) #7
  br label %189

187:                                              ; preds = %167
  call void @llvm.lifetime.start.p0(i64 1, ptr %43) #7
  store i8 1, ptr %43, align 1, !tbaa !14
  %188 = load i8, ptr %43, align 1, !tbaa !14
  store i8 %188, ptr %2, align 1
  store i32 1, ptr %11, align 4
  call void @llvm.lifetime.end.p0(i64 1, ptr %43) #7
  br label %189

189:                                              ; preds = %187, %186
  call void @llvm.lifetime.end.p0(i64 1, ptr %39) #7
  call void @llvm.lifetime.end.p0(i64 4, ptr %38) #7
  br label %192

190:                                              ; preds = %160
  call void @llvm.lifetime.start.p0(i64 1, ptr %44) #7
  store i8 1, ptr %44, align 1, !tbaa !14
  %191 = load i8, ptr %44, align 1, !tbaa !14
  store i8 %191, ptr %2, align 1
  store i32 1, ptr %11, align 4
  call void @llvm.lifetime.end.p0(i64 1, ptr %44) #7
  br label %192

192:                                              ; preds = %190, %189
  call void @llvm.lifetime.end.p0(i64 1, ptr %37) #7
  call void @llvm.lifetime.end.p0(i64 4, ptr %36) #7
  br label %195

193:                                              ; preds = %153
  call void @llvm.lifetime.start.p0(i64 1, ptr %45) #7
  store i8 1, ptr %45, align 1, !tbaa !14
  %194 = load i8, ptr %45, align 1, !tbaa !14
  store i8 %194, ptr %2, align 1
  store i32 1, ptr %11, align 4
  call void @llvm.lifetime.end.p0(i64 1, ptr %45) #7
  br label %195

195:                                              ; preds = %193, %192
  call void @llvm.lifetime.end.p0(i64 1, ptr %35) #7
  call void @llvm.lifetime.end.p0(i64 4, ptr %34) #7
  br label %198

196:                                              ; preds = %146
  call void @llvm.lifetime.start.p0(i64 1, ptr %46) #7
  store i8 1, ptr %46, align 1, !tbaa !14
  %197 = load i8, ptr %46, align 1, !tbaa !14
  store i8 %197, ptr %2, align 1
  store i32 1, ptr %11, align 4
  call void @llvm.lifetime.end.p0(i64 1, ptr %46) #7
  br label %198

198:                                              ; preds = %196, %195
  call void @llvm.lifetime.end.p0(i64 1, ptr %33) #7
  call void @llvm.lifetime.end.p0(i64 4, ptr %32) #7
  br label %201

199:                                              ; preds = %139
  call void @llvm.lifetime.start.p0(i64 1, ptr %47) #7
  store i8 0, ptr %47, align 1, !tbaa !14
  %200 = load i8, ptr %47, align 1, !tbaa !14
  store i8 %200, ptr %2, align 1
  store i32 1, ptr %11, align 4
  call void @llvm.lifetime.end.p0(i64 1, ptr %47) #7
  br label %201

201:                                              ; preds = %199, %198
  call void @llvm.lifetime.end.p0(i64 1, ptr %31) #7
  call void @llvm.lifetime.end.p0(i64 4, ptr %30) #7
  br label %204

202:                                              ; preds = %132
  call void @llvm.lifetime.start.p0(i64 1, ptr %48) #7
  store i8 0, ptr %48, align 1, !tbaa !14
  %203 = load i8, ptr %48, align 1, !tbaa !14
  store i8 %203, ptr %2, align 1
  store i32 1, ptr %11, align 4
  call void @llvm.lifetime.end.p0(i64 1, ptr %48) #7
  br label %204

204:                                              ; preds = %202, %201
  call void @llvm.lifetime.end.p0(i64 1, ptr %29) #7
  call void @llvm.lifetime.end.p0(i64 4, ptr %28) #7
  br label %207

205:                                              ; preds = %124
  call void @llvm.lifetime.start.p0(i64 1, ptr %49) #7
  store i8 0, ptr %49, align 1, !tbaa !14
  %206 = load i8, ptr %49, align 1, !tbaa !14
  store i8 %206, ptr %2, align 1
  store i32 1, ptr %11, align 4
  call void @llvm.lifetime.end.p0(i64 1, ptr %49) #7
  br label %207

207:                                              ; preds = %205, %204
  call void @llvm.lifetime.end.p0(i64 1, ptr %27) #7
  call void @llvm.lifetime.end.p0(i64 4, ptr %26) #7
  br label %234

208:                                              ; preds = %122, %87
  call void @llvm.lifetime.start.p0(i64 4, ptr %50) #7
  call void @llvm.lifetime.start.p0(i64 1, ptr %51) #7
  %209 = load ptr, ptr %5, align 8, !tbaa !8
  call void @lean_dec(ptr noundef %209)
  store i32 48, ptr %50, align 4, !tbaa !4
  %210 = load i32, ptr %50, align 4, !tbaa !4
  %211 = load i32, ptr %3, align 4, !tbaa !4
  %212 = call zeroext i8 @lean_uint32_dec_le(i32 noundef %210, i32 noundef %211)
  store i8 %212, ptr %51, align 1, !tbaa !14
  %213 = load i8, ptr %51, align 1, !tbaa !14
  %214 = zext i8 %213 to i32
  %215 = icmp eq i32 %214, 0
  br i1 %215, label %216, label %219

216:                                              ; preds = %208
  call void @llvm.lifetime.start.p0(i64 8, ptr %52) #7
  %217 = call ptr @lean_box(i64 noundef 0)
  store ptr %217, ptr %52, align 8, !tbaa !8
  %218 = load ptr, ptr %52, align 8, !tbaa !8
  store ptr %218, ptr %4, align 8, !tbaa !8
  store i32 4, ptr %11, align 4
  call void @llvm.lifetime.end.p0(i64 8, ptr %52) #7
  br label %232

219:                                              ; preds = %208
  call void @llvm.lifetime.start.p0(i64 4, ptr %53) #7
  call void @llvm.lifetime.start.p0(i64 1, ptr %54) #7
  store i32 57, ptr %53, align 4, !tbaa !4
  %220 = load i32, ptr %3, align 4, !tbaa !4
  %221 = load i32, ptr %53, align 4, !tbaa !4
  %222 = call zeroext i8 @lean_uint32_dec_le(i32 noundef %220, i32 noundef %221)
  store i8 %222, ptr %54, align 1, !tbaa !14
  %223 = load i8, ptr %54, align 1, !tbaa !14
  %224 = zext i8 %223 to i32
  %225 = icmp eq i32 %224, 0
  br i1 %225, label %226, label %229

226:                                              ; preds = %219
  call void @llvm.lifetime.start.p0(i64 8, ptr %55) #7
  %227 = call ptr @lean_box(i64 noundef 0)
  store ptr %227, ptr %55, align 8, !tbaa !8
  %228 = load ptr, ptr %55, align 8, !tbaa !8
  store ptr %228, ptr %4, align 8, !tbaa !8
  store i32 4, ptr %11, align 4
  call void @llvm.lifetime.end.p0(i64 8, ptr %55) #7
  br label %231

229:                                              ; preds = %219
  call void @llvm.lifetime.start.p0(i64 1, ptr %56) #7
  store i8 1, ptr %56, align 1, !tbaa !14
  %230 = load i8, ptr %56, align 1, !tbaa !14
  store i8 %230, ptr %2, align 1
  store i32 1, ptr %11, align 4
  call void @llvm.lifetime.end.p0(i64 1, ptr %56) #7
  br label %231

231:                                              ; preds = %229, %226
  call void @llvm.lifetime.end.p0(i64 1, ptr %54) #7
  call void @llvm.lifetime.end.p0(i64 4, ptr %53) #7
  br label %232

232:                                              ; preds = %231, %216
  call void @llvm.lifetime.end.p0(i64 1, ptr %51) #7
  call void @llvm.lifetime.end.p0(i64 4, ptr %50) #7
  %233 = load i32, ptr %11, align 4
  switch i32 %233, label %234 [
    i32 4, label %124
  ]

234:                                              ; preds = %232, %122, %87, %207
  call void @llvm.lifetime.end.p0(i64 1, ptr %7) #7
  call void @llvm.lifetime.end.p0(i64 4, ptr %6) #7
  call void @llvm.lifetime.end.p0(i64 8, ptr %5) #7
  call void @llvm.lifetime.end.p0(i64 8, ptr %4) #7
  %235 = load i8, ptr %2, align 1
  ret i8 %235
}