; Function Attrs: nounwind uwtable
define zeroext i8 @l_Lean_ParseImports_isIdRestFast(i32 noundef %0) local_unnamed_addr #0 {
  %2 = icmp ult i32 %0, 65
  br i1 %2, label %lean_dec.exit, label %3

3:                                                ; preds = %1
  %4 = icmp ugt i32 %0, 90
  %5 = add i32 %0, -123
  %or.cond = icmp ult i32 %5, -26
  %or.cond110 = and i1 %4, %or.cond
  br i1 %or.cond110, label %lean_dec.exit89, label %12

lean_dec.exit89:                                  ; preds = %3, %lean_dec.exit
  switch i32 %0, label %6 [
    i32 46, label %12
    i32 10, label %12
    i32 32, label %12
    i32 95, label %.fold.split
    i32 39, label %.fold.split
    i32 33, label %.fold.split
    i32 63, label %.fold.split
  ]

6:                                                ; preds = %lean_dec.exit89
  %7 = tail call zeroext i8 @l_Lean_isLetterLike(i32 noundef %0) #6
  %8 = icmp eq i8 %7, 0
  br i1 %8, label %9, label %12

9:                                                ; preds = %6
  %10 = tail call zeroext i8 @l_Lean_isSubScriptAlnum(i32 noundef %0) #6
  br label %12

lean_dec.exit:                                    ; preds = %1
  %11 = add nsw i32 %0, -58
  %or.cond108 = icmp ult i32 %11, -10
  br i1 %or.cond108, label %lean_dec.exit89, label %12

.fold.split:                                      ; preds = %lean_dec.exit89, %lean_dec.exit89, %lean_dec.exit89, %lean_dec.exit89
  br label %12

12:                                               ; preds = %lean_dec.exit, %lean_dec.exit89, %lean_dec.exit89, %lean_dec.exit89, %.fold.split, %3, %6, %9
  %.2 = phi i8 [ %10, %9 ], [ 1, %6 ], [ 0, %lean_dec.exit89 ], [ 1, %3 ], [ 0, %lean_dec.exit89 ], [ 0, %lean_dec.exit89 ], [ 1, %.fold.split ], [ 1, %lean_dec.exit ]
  ret i8 %.2
}